target datalayout = "e-m:e-p270:32:32-p271:32:32-p272:64:64-i64:64-i128:128-f80:128-n8:16:32:64-S128"
target triple = "x86_64-pc-linux-gnu"

%struct.SDL_PixelFormatDetails = type { i32, i8, i8, [2 x i8], i32, i32, i32, i32, i8, i8, i8, i8, i8, i8, i8, i8 }
%struct.SDL_Palette = type { i32, ptr, i32, i32 }
%struct.SDL_Color = type { i8, i8, i8, i8 }

@.str.66 = private unnamed_addr constant [26 x i8] c"Parameter '%s' is invalid\00", align 1
@.str.68 = private unnamed_addr constant [7 x i8] c"format\00", align 1
@.str.69 = private unnamed_addr constant [8 x i8] c"palette\00", align 1

; Function Attrs: nounwind uwtable
define hidden zeroext i8 @SDL_FindColor(ptr noundef %0, i8 noundef zeroext %1, i8 noundef zeroext %2, i8 noundef zeroext %3, i8 noundef zeroext %4) #0 {
  %6 = alloca ptr, align 8
  %7 = alloca i8, align 1
  %8 = alloca i8, align 1
  %9 = alloca i8, align 1
  %10 = alloca i8, align 1
  %11 = alloca i32, align 4
  %12 = alloca i32, align 4
  %13 = alloca i32, align 4
  %14 = alloca i32, align 4
  %15 = alloca i32, align 4
  %16 = alloca i32, align 4
  %17 = alloca i32, align 4
  %18 = alloca i8, align 1
  store ptr %0, ptr %6, align 8
  store i8 %1, ptr %7, align 1
  store i8 %2, ptr %8, align 1
  store i8 %3, ptr %9, align 1
  store i8 %4, ptr %10, align 1
  call void @llvm.lifetime.start.p0(i64 4, ptr %11) #7
  call void @llvm.lifetime.start.p0(i64 4, ptr %12) #7
  call void @llvm.lifetime.start.p0(i64 4, ptr %13) #7
  call void @llvm.lifetime.start.p0(i64 4, ptr %14) #7
  call void @llvm.lifetime.start.p0(i64 4, ptr %15) #7
  call void @llvm.lifetime.start.p0(i64 4, ptr %16) #7
  call void @llvm.lifetime.start.p0(i64 4, ptr %17) #7
  call void @llvm.lifetime.start.p0(i64 1, ptr %18) #7
  store i8 0, ptr %18, align 1
  store i32 -1, ptr %11, align 4
  store i32 0, ptr %17, align 4
  br label %19

19:                                               ; preds = %101, %5
  %20 = load i32, ptr %17, align 4
  %21 = load ptr, ptr %6, align 8
  %22 = getelementptr inbounds nuw %struct.SDL_Palette, ptr %21, i32 0, i32 0
  %23 = load i32, ptr %22, align 8
  %24 = icmp slt i32 %20, %23
  br i1 %24, label %25, label %104

25:                                               ; preds = %19
  %26 = load ptr, ptr %6, align 8
  %27 = getelementptr inbounds nuw %struct.SDL_Palette, ptr %26, i32 0, i32 1
  %28 = load ptr, ptr %27, align 8
  %29 = load i32, ptr %17, align 4
  %30 = sext i32 %29 to i64
  %31 = getelementptr inbounds %struct.SDL_Color, ptr %28, i64 %30
  %32 = getelementptr inbounds nuw %struct.SDL_Color, ptr %31, i32 0, i32 0
  %33 = load i8, ptr %32, align 1
  %34 = zext i8 %33 to i32
  %35 = load i8, ptr %7, align 1
  %36 = zext i8 %35 to i32
  %37 = sub nsw i32 %34, %36
  store i32 %37, ptr %13, align 4
  %38 = load ptr, ptr %6, align 8
  %39 = getelementptr inbounds nuw %struct.SDL_Palette, ptr %38, i32 0, i32 1
  %40 = load ptr, ptr %39, align 8
  %41 = load i32, ptr %17, align 4
  %42 = sext i32 %41 to i64
  %43 = getelementptr inbounds %struct.SDL_Color, ptr %40, i64 %42
  %44 = getelementptr inbounds nuw %struct.SDL_Color, ptr %43, i32 0, i32 1
  %45 = load i8, ptr %44, align 1
  %46 = zext i8 %45 to i32
  %47 = load i8, ptr %8, align 1
  %48 = zext i8 %47 to i32
  %49 = sub nsw i32 %46, %48
  store i32 %49, ptr %14, align 4
  %50 = load ptr, ptr %6, align 8
  %51 = getelementptr inbounds nuw %struct.SDL_Palette, ptr %50, i32 0, i32 1
  %52 = load ptr, ptr %51, align 8
  %53 = load i32, ptr %17, align 4
  %54 = sext i32 %53 to i64
  %55 = getelementptr inbounds %struct.SDL_Color, ptr %52, i64 %54
  %56 = getelementptr inbounds nuw %struct.SDL_Color, ptr %55, i32 0, i32 2
  %57 = load i8, ptr %56, align 1
  %58 = zext i8 %57 to i32
  %59 = load i8, ptr %9, align 1
  %60 = zext i8 %59 to i32
  %61 = sub nsw i32 %58, %60
  store i32 %61, ptr %15, align 4
  %62 = load ptr, ptr %6, align 8
  %63 = getelementptr inbounds nuw %struct.SDL_Palette, ptr %62, i32 0, i32 1
  %64 = load ptr, ptr %63, align 8
  %65 = load i32, ptr %17, align 4
  %66 = sext i32 %65 to i64
  %67 = getelementptr inbounds %struct.SDL_Color, ptr %64, i64 %66
  %68 = getelementptr inbounds nuw %struct.SDL_Color, ptr %67, i32 0, i32 3
  %69 = load i8, ptr %68, align 1
  %70 = zext i8 %69 to i32
  %71 = load i8, ptr %10, align 1
  %72 = zext i8 %71 to i32
  %73 = sub nsw i32 %70, %72
  store i32 %73, ptr %16, align 4
  %74 = load i32, ptr %13, align 4
  %75 = load i32, ptr %13, align 4
  %76 = mul nsw i32 %74, %75
  %77 = load i32, ptr %14, align 4
  %78 = load i32, ptr %14, align 4
  %79 = mul nsw i32 %77, %78
  %80 = add nsw i32 %76, %79
  %81 = load i32, ptr %15, align 4
  %82 = load i32, ptr %15, align 4
  %83 = mul nsw i32 %81, %82
  %84 = add nsw i32 %80, %83
  %85 = load i32, ptr %16, align 4
  %86 = load i32, ptr %16, align 4
  %87 = mul nsw i32 %85, %86
  %88 = add nsw i32 %84, %87
  store i32 %88, ptr %12, align 4
  %89 = load i32, ptr %12, align 4
  %90 = load i32, ptr %11, align 4
  %91 = icmp ult i32 %89, %90
  br i1 %91, label %92, label %100

92:                                               ; preds = %25
  %93 = load i32, ptr %17, align 4
  %94 = trunc i32 %93 to i8
  store i8 %94, ptr %18, align 1
  %95 = load i32, ptr %12, align 4
  %96 = icmp eq i32 %95, 0
  br i1 %96, label %97, label %98

97:                                               ; preds = %92
  br label %104

98:                                               ; preds = %92
  %99 = load i32, ptr %12, align 4
  store i32 %99, ptr %11, align 4
  br label %100

100:                                              ; preds = %98, %25
  br label %101

101:                                              ; preds = %100
  %102 = load i32, ptr %17, align 4
  %103 = add nsw i32 %102, 1
  store i32 %103, ptr %17, align 4
  br label %19, !llvm.loop !15

104:                                              ; preds = %97, %19
  %105 = load i8, ptr %18, align 1
  call void @llvm.lifetime.end.p0(i64 1, ptr %18) #7
  call void @llvm.lifetime.end.p0(i64 4, ptr %17) #7
  call void @llvm.lifetime.end.p0(i64 4, ptr %16) #7
  call void @llvm.lifetime.end.p0(i64 4, ptr %15) #7
  call void @llvm.lifetime.end.p0(i64 4, ptr %14) #7
  call void @llvm.lifetime.end.p0(i64 4, ptr %13) #7
  call void @llvm.lifetime.end.p0(i64 4, ptr %12) #7
  call void @llvm.lifetime.end.p0(i64 4, ptr %11) #7
  ret i8 %105
}

; Function Attrs: nounwind uwtable
define hidden i32 @SDL_MapRGB_REAL(ptr noundef %0, ptr noundef %1, i8 noundef zeroext %2, i8 noundef zeroext %3, i8 noundef zeroext %4) #0 {
  %6 = alloca i32, align 4
  %7 = alloca ptr, align 8
  %8 = alloca ptr, align 8
  %9 = alloca i8, align 1
  %10 = alloca i8, align 1
  %11 = alloca i8, align 1
  store ptr %0, ptr %7, align 8
  store ptr %1, ptr %8, align 8
  store i8 %2, ptr %9, align 1
  store i8 %3, ptr %10, align 1
  store i8 %4, ptr %11, align 1
  %12 = load ptr, ptr %7, align 8
  %13 = icmp ne ptr %12, null
  br i1 %13, label %16, label %14

14:                                               ; preds = %5
  %15 = call zeroext i1 (ptr, ...) @SDL_SetError_REAL(ptr noundef @.str.66, ptr noundef @.str.68)
  store i32 0, ptr %6, align 4
  br label %177

16:                                               ; preds = %5
  %17 = load ptr, ptr %7, align 8
  %18 = getelementptr inbounds nuw %struct.SDL_PixelFormatDetails, ptr %17, i32 0, i32 0
  %19 = load i32, ptr %18, align 4
  %20 = icmp ne i32 %19, 0
  br i1 %20, label %21, label %28

21:                                               ; preds = %16
  %22 = load ptr, ptr %7, align 8
  %23 = getelementptr inbounds nuw %struct.SDL_PixelFormatDetails, ptr %22, i32 0, i32 0
  %24 = load i32, ptr %23, align 4
  %25 = lshr i32 %24, 28
  %26 = and i32 %25, 15
  %27 = icmp ne i32 %26, 1
  br i1 %27, label %68, label %28

28:                                               ; preds = %21, %16
  %29 = load ptr, ptr %7, align 8
  %30 = getelementptr inbounds nuw %struct.SDL_PixelFormatDetails, ptr %29, i32 0, i32 0
  %31 = load i32, ptr %30, align 4
  %32 = lshr i32 %31, 24
  %33 = and i32 %32, 15
  %34 = icmp eq i32 %33, 1
  br i1 %34, label %56, label %35

35:                                               ; preds = %28
  %36 = load ptr, ptr %7, align 8
  %37 = getelementptr inbounds nuw %struct.SDL_PixelFormatDetails, ptr %36, i32 0, i32 0
  %38 = load i32, ptr %37, align 4
  %39 = lshr i32 %38, 24
  %40 = and i32 %39, 15
  %41 = icmp eq i32 %40, 12
  br i1 %41, label %56, label %42

42:                                               ; preds = %35
  %43 = load ptr, ptr %7, align 8
  %44 = getelementptr inbounds nuw %struct.SDL_PixelFormatDetails, ptr %43, i32 0, i32 0
  %45 = load i32, ptr %44, align 4
  %46 = lshr i32 %45, 24
  %47 = and i32 %46, 15
  %48 = icmp eq i32 %47, 2
  br i1 %48, label %56, label %49

49:                                               ; preds = %42
  %50 = load ptr, ptr %7, align 8
  %51 = getelementptr inbounds nuw %struct.SDL_PixelFormatDetails, ptr %50, i32 0, i32 0
  %52 = load i32, ptr %51, align 4
  %53 = lshr i32 %52, 24
  %54 = and i32 %53, 15
  %55 = icmp eq i32 %54, 3
  br i1 %55, label %56, label %68

56:                                               ; preds = %49, %42, %35, %28
  %57 = load ptr, ptr %8, align 8
  %58 = icmp ne ptr %57, null
  br i1 %58, label %61, label %59

59:                                               ; preds = %56
  %60 = call zeroext i1 (ptr, ...) @SDL_SetError_REAL(ptr noundef @.str.66, ptr noundef @.str.69)
  store i32 0, ptr %6, align 4
  br label %177

61:                                               ; preds = %56
  %62 = load ptr, ptr %8, align 8
  %63 = load i8, ptr %9, align 1
  %64 = load i8, ptr %10, align 1
  %65 = load i8, ptr %11, align 1
  %66 = call zeroext i8 @SDL_FindColor(ptr noundef %62, i8 noundef zeroext %63, i8 noundef zeroext %64, i8 noundef zeroext %65, i8 noundef zeroext -1)
  %67 = zext i8 %66 to i32
  store i32 %67, ptr %6, align 4
  br label %177

68:                                               ; preds = %49, %21
  %69 = load ptr, ptr %7, align 8
  %70 = getelementptr inbounds nuw %struct.SDL_PixelFormatDetails, ptr %69, i32 0, i32 0
  %71 = load i32, ptr %70, align 4
  %72 = icmp ne i32 %71, 0
  br i1 %72, label %73, label %80

73:                                               ; preds = %68
  %74 = load ptr, ptr %7, align 8
  %75 = getelementptr inbounds nuw %struct.SDL_PixelFormatDetails, ptr %74, i32 0, i32 0
  %76 = load i32, ptr %75, align 4
  %77 = lshr i32 %76, 28
  %78 = and i32 %77, 15
  %79 = icmp ne i32 %78, 1
  br i1 %79, label %131, label %80

80:                                               ; preds = %73, %68
  %81 = load ptr, ptr %7, align 8
  %82 = getelementptr inbounds nuw %struct.SDL_PixelFormatDetails, ptr %81, i32 0, i32 0
  %83 = load i32, ptr %82, align 4
  %84 = lshr i32 %83, 24
  %85 = and i32 %84, 15
  %86 = icmp eq i32 %85, 6
  br i1 %86, label %87, label %131

87:                                               ; preds = %80
  %88 = load ptr, ptr %7, align 8
  %89 = getelementptr inbounds nuw %struct.SDL_PixelFormatDetails, ptr %88, i32 0, i32 0
  %90 = load i32, ptr %89, align 4
  %91 = lshr i32 %90, 16
  %92 = and i32 %91, 15
  %93 = icmp eq i32 %92, 7
  br i1 %93, label %94, label %131

94:                                               ; preds = %87
  %95 = load i8, ptr %9, align 1
  %96 = zext i8 %95 to i64
  %97 = getelementptr inbounds nuw [256 x i16], ptr @SDL_expand_byte_10, i64 0, i64 %96
  %98 = load i16, ptr %97, align 2
  %99 = zext i16 %98 to i32
  %100 = load ptr, ptr %7, align 8
  %101 = getelementptr inbounds nuw %struct.SDL_PixelFormatDetails, ptr %100, i32 0, i32 12
  %102 = load i8, ptr %101, align 4
  %103 = zext i8 %102 to i32
  %104 = shl i32 %99, %103
  %105 = load i8, ptr %10, align 1
  %106 = zext i8 %105 to i64
  %107 = getelementptr inbounds nuw [256 x i16], ptr @SDL_expand_byte_10, i64 0, i64 %106
  %108 = load i16, ptr %107, align 2
  %109 = zext i16 %108 to i32
  %110 = load ptr, ptr %7, align 8
  %111 = getelementptr inbounds nuw %struct.SDL_PixelFormatDetails, ptr %110, i32 0, i32 13
  %112 = load i8, ptr %111, align 1
  %113 = zext i8 %112 to i32
  %114 = shl i32 %109, %113
  %115 = or i32 %104, %114
  %116 = load i8, ptr %11, align 1
  %117 = zext i8 %116 to i64
  %118 = getelementptr inbounds nuw [256 x i16], ptr @SDL_expand_byte_10, i64 0, i64 %117
  %119 = load i16, ptr %118, align 2
  %120 = zext i16 %119 to i32
  %121 = load ptr, ptr %7, align 8
  %122 = getelementptr inbounds nuw %struct.SDL_PixelFormatDetails, ptr %121, i32 0, i32 14
  %123 = load i8, ptr %122, align 2
  %124 = zext i8 %123 to i32
  %125 = shl i32 %120, %124
  %126 = or i32 %115, %125
  %127 = load ptr, ptr %7, align 8
  %128 = getelementptr inbounds nuw %struct.SDL_PixelFormatDetails, ptr %127, i32 0, i32 7
  %129 = load i32, ptr %128, align 4
  %130 = or i32 %126, %129
  store i32 %130, ptr %6, align 4
  br label %177

131:                                              ; preds = %87, %80, %73
  %132 = load i8, ptr %9, align 1
  %133 = zext i8 %132 to i32
  %134 = load ptr, ptr %7, align 8
  %135 = getelementptr inbounds nuw %struct.SDL_PixelFormatDetails, ptr %134, i32 0, i32 8
  %136 = load i8, ptr %135, align 4
  %137 = zext i8 %136 to i32
  %138 = sub nsw i32 8, %137
  %139 = ashr i32 %133, %138
  %140 = load ptr, ptr %7, align 8
  %141 = getelementptr inbounds nuw %struct.SDL_PixelFormatDetails, ptr %140, i32 0, i32 12
  %142 = load i8, ptr %141, align 4
  %143 = zext i8 %142 to i32
  %144 = shl i32 %139, %143
  %145 = load i8, ptr %10, align 1
  %146 = zext i8 %145 to i32
  %147 = load ptr, ptr %7, align 8
  %148 = getelementptr inbounds nuw %struct.SDL_PixelFormatDetails, ptr %147, i32 0, i32 9
  %149 = load i8, ptr %148, align 1
  %150 = zext i8 %149 to i32
  %151 = sub nsw i32 8, %150
  %152 = ashr i32 %146, %151
  %153 = load ptr, ptr %7, align 8
  %154 = getelementptr inbounds nuw %struct.SDL_PixelFormatDetails, ptr %153, i32 0, i32 13
  %155 = load i8, ptr %154, align 1
  %156 = zext i8 %155 to i32
  %157 = shl i32 %152, %156
  %158 = or i32 %144, %157
  %159 = load i8, ptr %11, align 1
  %160 = zext i8 %159 to i32
  %161 = load ptr, ptr %7, align 8
  %162 = getelementptr inbounds nuw %struct.SDL_PixelFormatDetails, ptr %161, i32 0, i32 10
  %163 = load i8, ptr %162, align 2
  %164 = zext i8 %163 to i32
  %165 = sub nsw i32 8, %164
  %166 = ashr i32 %160, %165
  %167 = load ptr, ptr %7, align 8
  %168 = getelementptr inbounds nuw %struct.SDL_PixelFormatDetails, ptr %167, i32 0, i32 14
  %169 = load i8, ptr %168, align 2
  %170 = zext i8 %169 to i32
  %171 = shl i32 %166, %170
  %172 = or i32 %158, %171
  %173 = load ptr, ptr %7, align 8
  %174 = getelementptr inbounds nuw %struct.SDL_PixelFormatDetails, ptr %173, i32 0, i32 7
  %175 = load i32, ptr %174, align 4
  %176 = or i32 %172, %175
  store i32 %176, ptr %6, align 4
  br label %177

177:                                              ; preds = %131, %94, %61, %59, %14
  %178 = load i32, ptr %6, align 4
  ret i32 %178
}