; Function Attrs: nounwind uwtable
define hidden i32 @SDL_MapRGB_REAL(ptr noundef readonly captures(address_is_null) %0, ptr noundef readonly captures(address_is_null) %1, i8 noundef zeroext %2, i8 noundef zeroext %3, i8 noundef zeroext %4) local_unnamed_addr #1 {
  %.not = icmp eq ptr %0, null
  br i1 %.not, label %6, label %8

6:                                                ; preds = %5
  %7 = tail call zeroext i1 (ptr, ...) @SDL_SetError_REAL(ptr noundef nonnull @.str.66, ptr noundef nonnull @.str.68) #15
  br label %SDL_FindColor.exit

8:                                                ; preds = %5
  %9 = load i32, ptr %0, align 4
  %.not38 = icmp eq i32 %9, 0
  %.mask = and i32 %9, -268435456
  %.not39 = icmp eq i32 %.mask, 268435456
  %or.cond = or i1 %.not38, %.not39
  br i1 %or.cond, label %10, label %86

10:                                               ; preds = %8
  %11 = lshr i32 %9, 24
  %12 = and i32 %11, 15
  switch i32 %12, label %54 [
    i32 1, label %13
    i32 12, label %13
    i32 2, label %13
    i32 3, label %13
  ]

13:                                               ; preds = %10, %10, %10, %10
  %.not40 = icmp eq ptr %1, null
  br i1 %.not40, label %14, label %16

14:                                               ; preds = %13
  %15 = tail call zeroext i1 (ptr, ...) @SDL_SetError_REAL(ptr noundef nonnull @.str.66, ptr noundef nonnull @.str.69) #15
  br label %SDL_FindColor.exit

16:                                               ; preds = %13
  %17 = load i32, ptr %1, align 8
  %18 = icmp sgt i32 %17, 0
  br i1 %18, label %.lr.ph.i, label %SDL_FindColor.exit

.lr.ph.i:                                         ; preds = %16
  %19 = getelementptr inbounds nuw i8, ptr %1, i64 8
  %20 = load ptr, ptr %19, align 8
  %21 = zext i8 %2 to i32
  %22 = zext i8 %3 to i32
  %23 = zext i8 %4 to i32
  %wide.trip.count.i = zext nneg i32 %17 to i64
  br label %24

24:                                               ; preds = %52, %.lr.ph.i
  %indvars.iv.i = phi i64 [ 0, %.lr.ph.i ], [ %indvars.iv.next.i, %52 ]
  %.034.i = phi i8 [ 0, %.lr.ph.i ], [ %.2.i, %52 ]
  %.02932.i = phi i32 [ -1, %.lr.ph.i ], [ %.130.i, %52 ]
  %25 = getelementptr inbounds nuw %struct.SDL_Color, ptr %20, i64 %indvars.iv.i
  %26 = load i8, ptr %25, align 1
  %27 = zext i8 %26 to i32
  %28 = sub nsw i32 %27, %21
  %29 = getelementptr inbounds nuw i8, ptr %25, i64 1
  %30 = load i8, ptr %29, align 1
  %31 = zext i8 %30 to i32
  %32 = sub nsw i32 %31, %22
  %33 = getelementptr inbounds nuw i8, ptr %25, i64 2
  %34 = load i8, ptr %33, align 1
  %35 = zext i8 %34 to i32
  %36 = sub nsw i32 %35, %23
  %37 = getelementptr inbounds nuw i8, ptr %25, i64 3
  %38 = load i8, ptr %37, align 1
  %39 = zext i8 %38 to i32
  %40 = add nsw i32 %39, -255
  %41 = mul nsw i32 %28, %28
  %42 = mul nsw i32 %32, %32
  %43 = add nuw nsw i32 %42, %41
  %44 = mul nsw i32 %36, %36
  %45 = add nuw nsw i32 %43, %44
  %46 = mul nsw i32 %40, %40
  %47 = add nuw nsw i32 %45, %46
  %48 = icmp ult i32 %47, %.02932.i
  br i1 %48, label %49, label %52

49:                                               ; preds = %24
  %50 = trunc i64 %indvars.iv.i to i8
  %51 = icmp eq i32 %47, 0
  br i1 %51, label %SDL_FindColor.exit.loopexit, label %52

52:                                               ; preds = %49, %24
  %.130.i = phi i32 [ %.02932.i, %24 ], [ %47, %49 ]
  %.2.i = phi i8 [ %.034.i, %24 ], [ %50, %49 ]
  %indvars.iv.next.i = add nuw nsw i64 %indvars.iv.i, 1
  %exitcond.not.i = icmp eq i64 %indvars.iv.next.i, %wide.trip.count.i
  br i1 %exitcond.not.i, label %SDL_FindColor.exit.loopexit, label %24, !llvm.loop !13

SDL_FindColor.exit.loopexit:                      ; preds = %52, %49
  %.1.i.ph = phi i8 [ %50, %49 ], [ %.2.i, %52 ]
  %53 = zext i8 %.1.i.ph to i32
  br label %SDL_FindColor.exit

54:                                               ; preds = %10
  %55 = and i32 %9, 252641280
  %or.cond46 = icmp eq i32 %55, 101122048
  br i1 %or.cond46, label %56, label %86

56:                                               ; preds = %54
  %57 = zext i8 %2 to i64
  %58 = getelementptr inbounds nuw [256 x i16], ptr @SDL_expand_byte_10, i64 0, i64 %57
  %59 = load i16, ptr %58, align 2
  %60 = zext i16 %59 to i32
  %61 = getelementptr inbounds nuw i8, ptr %0, i64 28
  %62 = load i8, ptr %61, align 4
  %63 = zext nneg i8 %62 to i32
  %64 = shl i32 %60, %63
  %65 = zext i8 %3 to i64
  %66 = getelementptr inbounds nuw [256 x i16], ptr @SDL_expand_byte_10, i64 0, i64 %65
  %67 = load i16, ptr %66, align 2
  %68 = zext i16 %67 to i32
  %69 = getelementptr inbounds nuw i8, ptr %0, i64 29
  %70 = load i8, ptr %69, align 1
  %71 = zext nneg i8 %70 to i32
  %72 = shl i32 %68, %71
  %73 = or i32 %72, %64
  %74 = zext i8 %4 to i64
  %75 = getelementptr inbounds nuw [256 x i16], ptr @SDL_expand_byte_10, i64 0, i64 %74
  %76 = load i16, ptr %75, align 2
  %77 = zext i16 %76 to i32
  %78 = getelementptr inbounds nuw i8, ptr %0, i64 30
  %79 = load i8, ptr %78, align 2
  %80 = zext nneg i8 %79 to i32
  %81 = shl i32 %77, %80
  %82 = getelementptr inbounds nuw i8, ptr %0, i64 20
  %83 = load i32, ptr %82, align 4
  %84 = or i32 %73, %83
  %85 = or i32 %84, %81
  br label %SDL_FindColor.exit

86:                                               ; preds = %8, %54
  %87 = zext i8 %2 to i32
  %88 = getelementptr inbounds nuw i8, ptr %0, i64 24
  %89 = load i8, ptr %88, align 4
  %90 = zext i8 %89 to i32
  %91 = sub nsw i32 8, %90
  %92 = lshr i32 %87, %91
  %93 = getelementptr inbounds nuw i8, ptr %0, i64 28
  %94 = load i8, ptr %93, align 4
  %95 = zext nneg i8 %94 to i32
  %96 = shl i32 %92, %95
  %97 = zext i8 %3 to i32
  %98 = getelementptr inbounds nuw i8, ptr %0, i64 25
  %99 = load i8, ptr %98, align 1
  %100 = zext i8 %99 to i32
  %101 = sub nsw i32 8, %100
  %102 = lshr i32 %97, %101
  %103 = getelementptr inbounds nuw i8, ptr %0, i64 29
  %104 = load i8, ptr %103, align 1
  %105 = zext nneg i8 %104 to i32
  %106 = shl i32 %102, %105
  %107 = or i32 %106, %96
  %108 = zext i8 %4 to i32
  %109 = getelementptr inbounds nuw i8, ptr %0, i64 26
  %110 = load i8, ptr %109, align 2
  %111 = zext i8 %110 to i32
  %112 = sub nsw i32 8, %111
  %113 = lshr i32 %108, %112
  %114 = getelementptr inbounds nuw i8, ptr %0, i64 30
  %115 = load i8, ptr %114, align 2
  %116 = zext nneg i8 %115 to i32
  %117 = shl i32 %113, %116
  %118 = getelementptr inbounds nuw i8, ptr %0, i64 20
  %119 = load i32, ptr %118, align 4
  %120 = or i32 %107, %119
  %121 = or i32 %120, %117
  br label %SDL_FindColor.exit

SDL_FindColor.exit:                               ; preds = %16, %SDL_FindColor.exit.loopexit, %86, %56, %14, %6
  %.0 = phi i32 [ %121, %86 ], [ %85, %56 ], [ 0, %14 ], [ 0, %6 ], [ 0, %16 ], [ %53, %SDL_FindColor.exit.loopexit ]
  ret i32 %.0
}